target datalayout = "e-m:e-p270:32:32-p271:32:32-p272:64:64-i64:64-i128:128-f80:128-n8:16:32:64-S128"
target triple = "x86_64-pc-linux-gnu"

%struct.RelationData = type { %struct.RelFileLocator, ptr, i32, i32, i8, i8, i8, i8, i8, i32, i32, i32, i32, ptr, ptr, i32, %struct.LockInfoData, ptr, ptr, ptr, ptr, ptr, i8, ptr, ptr, ptr, ptr, ptr, ptr, i32, ptr, i8, ptr, ptr, i32, i8, i32, ptr, i8, ptr, ptr, ptr, ptr, ptr, ptr, ptr, i32, ptr, ptr, ptr, ptr, ptr, ptr, ptr, ptr, ptr, ptr, ptr, ptr, ptr, ptr, ptr, ptr, ptr, ptr, ptr, i32, i8, ptr }
%struct.RelFileLocator = type { i32, i32, i32 }
%struct.LockInfoData = type { %struct.LockRelId }
%struct.LockRelId = type { i32, i32 }
%struct.FormData_pg_class = type { i32, %struct.nameData, i32, i32, i32, i32, i32, i32, i32, i32, float, i32, i32, i8, i8, i8, i8, i16, i16, i8, i8, i8, i8, i8, i8, i8, i8, i32, i32, i32 }
%struct.nameData = type { [64 x i8] }
%struct.HeapTupleData = type { i32, %struct.ItemPointerData, i32, ptr }
%struct.ItemPointerData = type { %struct.BlockIdData, i16 }
%struct.BlockIdData = type { i16, i16 }
%struct.HeapTupleHeaderData = type { %union.anon, %struct.ItemPointerData, i16, i16, i8, [0 x i8] }
%union.anon = type { %struct.HeapTupleFields }
%struct.HeapTupleFields = type { i32, i32, %union.anon.0 }
%union.anon.0 = type { i32 }
%struct.ScanKeyData = type { i32, i16, i16, i32, i32, %struct.FmgrInfo, i64 }
%struct.FmgrInfo = type { ptr, i32, i16, i8, i8, i8, ptr, ptr, ptr }
%struct.TableScanDescData = type { ptr, ptr, i32, ptr, %union.anon.1, i32, ptr }
%union.anon.1 = type { %struct.TBMIterator }
%struct.TBMIterator = type { i8, %union.anon.2 }
%union.anon.2 = type { ptr }
%struct.TableAmRoutine = type { i32, ptr, ptr, ptr, ptr, ptr, ptr, ptr, ptr, ptr, ptr, ptr, ptr, ptr, ptr, ptr, ptr, ptr, ptr, ptr, ptr, ptr, ptr, ptr, ptr, ptr, ptr, ptr, ptr, ptr, ptr, ptr, ptr, ptr, ptr, ptr, ptr, ptr, ptr, ptr, ptr, ptr, ptr, ptr, ptr, ptr }

; Function Attrs: inlinehint nounwind uwtable
define internal void @table_endscan(ptr noundef %0) #2 {
  %2 = alloca ptr, align 8
  store ptr %0, ptr %2, align 8
  %3 = load ptr, ptr %2, align 8
  %4 = getelementptr inbounds nuw %struct.TableScanDescData, ptr %3, i32 0, i32 0
  %5 = load ptr, ptr %4, align 8
  %6 = getelementptr inbounds nuw %struct.RelationData, ptr %5, i32 0, i32 47
  %7 = load ptr, ptr %6, align 8
  %8 = getelementptr inbounds nuw %struct.TableAmRoutine, ptr %7, i32 0, i32 3
  %9 = load ptr, ptr %8, align 8
  %10 = load ptr, ptr %2, align 8
  call void %9(ptr noundef %10)
  ret void
}

; Function Attrs: nounwind uwtable
define internal zeroext i1 @is_publishable_class(i32 noundef %0, ptr noundef %1) #0 {
  %3 = alloca i32, align 4
  %4 = alloca ptr, align 8
  store i32 %0, ptr %3, align 4
  store ptr %1, ptr %4, align 8
  %5 = load ptr, ptr %4, align 8
  %6 = getelementptr inbounds nuw %struct.FormData_pg_class, ptr %5, i32 0, i32 16
  %7 = load i8, ptr %6, align 1
  %8 = sext i8 %7 to i32
  %9 = icmp eq i32 %8, 114
  br i1 %9, label %16, label %10

10:                                               ; preds = %2
  %11 = load ptr, ptr %4, align 8
  %12 = getelementptr inbounds nuw %struct.FormData_pg_class, ptr %11, i32 0, i32 16
  %13 = load i8, ptr %12, align 1
  %14 = sext i8 %13 to i32
  %15 = icmp eq i32 %14, 112
  br i1 %15, label %16, label %28

16:                                               ; preds = %10, %2
  %17 = load i32, ptr %3, align 4
  %18 = call zeroext i1 @IsCatalogRelationOid(i32 noundef %17)
  br i1 %18, label %28, label %19

19:                                               ; preds = %16
  %20 = load ptr, ptr %4, align 8
  %21 = getelementptr inbounds nuw %struct.FormData_pg_class, ptr %20, i32 0, i32 15
  %22 = load i8, ptr %21, align 2
  %23 = sext i8 %22 to i32
  %24 = icmp eq i32 %23, 112
  br i1 %24, label %25, label %28

25:                                               ; preds = %19
  %26 = load i32, ptr %3, align 4
  %27 = icmp uge i32 %26, 16384
  br label %28

28:                                               ; preds = %25, %19, %16, %10
  %29 = phi i1 [ false, %19 ], [ false, %16 ], [ false, %10 ], [ %27, %25 ]
  ret i1 %29
}

; Function Attrs: inlinehint nounwind uwtable
define internal ptr @GETSTRUCT(ptr noundef %0) #2 {
  %2 = alloca ptr, align 8
  store ptr %0, ptr %2, align 8
  %3 = load ptr, ptr %2, align 8
  %4 = getelementptr inbounds nuw %struct.HeapTupleData, ptr %3, i32 0, i32 3
  %5 = load ptr, ptr %4, align 8
  %6 = load ptr, ptr %2, align 8
  %7 = getelementptr inbounds nuw %struct.HeapTupleData, ptr %6, i32 0, i32 3
  %8 = load ptr, ptr %7, align 8
  %9 = getelementptr inbounds nuw %struct.HeapTupleHeaderData, ptr %8, i32 0, i32 4
  %10 = load i8, ptr %9, align 2
  %11 = zext i8 %10 to i32
  %12 = sext i32 %11 to i64
  %13 = getelementptr inbounds i8, ptr %5, i64 %12
  ret ptr %13
}

; Function Attrs: nounwind uwtable
define dso_local ptr @GetSchemaPublicationRelations(i32 noundef %0, i32 noundef %1) #0 {
  %3 = alloca i32, align 4
  %4 = alloca i32, align 4
  %5 = alloca ptr, align 8
  %6 = alloca [1 x %struct.ScanKeyData], align 16
  %7 = alloca ptr, align 8
  %8 = alloca ptr, align 8
  %9 = alloca ptr, align 8
  %10 = alloca ptr, align 8
  %11 = alloca i32, align 4
  %12 = alloca i8, align 1
  %13 = alloca i32, align 4
  %14 = alloca ptr, align 8
  store i32 %0, ptr %3, align 4
  store i32 %1, ptr %4, align 4
  call void @llvm.lifetime.start.p0(i64 8, ptr %5) #7
  call void @llvm.lifetime.start.p0(i64 72, ptr %6) #7
  call void @llvm.lifetime.start.p0(i64 8, ptr %7) #7
  call void @llvm.lifetime.start.p0(i64 8, ptr %8) #7
  call void @llvm.lifetime.start.p0(i64 8, ptr %9) #7
  store ptr null, ptr %9, align 8
  %15 = call ptr @table_open(i32 noundef 1259, i32 noundef 1)
  store ptr %15, ptr %5, align 8
  %16 = getelementptr inbounds [1 x %struct.ScanKeyData], ptr %6, i64 0, i64 0
  %17 = load i32, ptr %3, align 4
  %18 = zext i32 %17 to i64
  call void @ScanKeyInit(ptr noundef %16, i16 noundef signext 3, i16 noundef zeroext 3, i32 noundef 184, i64 noundef %18)
  %19 = load ptr, ptr %5, align 8
  %20 = getelementptr inbounds [1 x %struct.ScanKeyData], ptr %6, i64 0, i64 0
  %21 = call ptr @table_beginscan_catalog(ptr noundef %19, i32 noundef 1, ptr noundef %20)
  store ptr %21, ptr %7, align 8
  br label %22

22:                                               ; preds = %64, %62, %2
  %23 = load ptr, ptr %7, align 8
  %24 = call ptr @heap_getnext(ptr noundef %23, i32 noundef 1)
  store ptr %24, ptr %8, align 8
  %25 = icmp ne ptr %24, null
  br i1 %25, label %26, label %65

26:                                               ; preds = %22
  call void @llvm.lifetime.start.p0(i64 8, ptr %10) #7
  %27 = load ptr, ptr %8, align 8
  %28 = call ptr @GETSTRUCT(ptr noundef %27)
  store ptr %28, ptr %10, align 8
  call void @llvm.lifetime.start.p0(i64 4, ptr %11) #7
  %29 = load ptr, ptr %10, align 8
  %30 = getelementptr inbounds nuw %struct.FormData_pg_class, ptr %29, i32 0, i32 0
  %31 = load i32, ptr %30, align 4
  store i32 %31, ptr %11, align 4
  call void @llvm.lifetime.start.p0(i64 1, ptr %12) #7
  %32 = load i32, ptr %11, align 4
  %33 = load ptr, ptr %10, align 8
  %34 = call zeroext i1 @is_publishable_class(i32 noundef %32, ptr noundef %33)
  br i1 %34, label %36, label %35

35:                                               ; preds = %26
  store i32 2, ptr %13, align 4
  br label %62, !llvm.loop !16

36:                                               ; preds = %26
  %37 = load i32, ptr %11, align 4
  %38 = call signext i8 @get_rel_relkind(i32 noundef %37)
  store i8 %38, ptr %12, align 1
  %39 = load i8, ptr %12, align 1
  %40 = sext i8 %39 to i32
  %41 = icmp eq i32 %40, 114
  br i1 %41, label %42, label %46

42:                                               ; preds = %36
  %43 = load ptr, ptr %9, align 8
  %44 = load i32, ptr %11, align 4
  %45 = call ptr @lappend_oid(ptr noundef %43, i32 noundef %44)
  store ptr %45, ptr %9, align 8
  br label %61

46:                                               ; preds = %36
  %47 = load i8, ptr %12, align 1
  %48 = sext i8 %47 to i32
  %49 = icmp eq i32 %48, 112
  br i1 %49, label %50, label %60

50:                                               ; preds = %46
  call void @llvm.lifetime.start.p0(i64 8, ptr %14) #7
  store ptr null, ptr %14, align 8
  %51 = load ptr, ptr %14, align 8
  %52 = load i32, ptr %4, align 4
  %53 = load ptr, ptr %10, align 8
  %54 = getelementptr inbounds nuw %struct.FormData_pg_class, ptr %53, i32 0, i32 0
  %55 = load i32, ptr %54, align 4
  %56 = call ptr @GetPubPartitionOptionRelations(ptr noundef %51, i32 noundef %52, i32 noundef %55)
  store ptr %56, ptr %14, align 8
  %57 = load ptr, ptr %9, align 8
  %58 = load ptr, ptr %14, align 8
  %59 = call ptr @list_concat_unique_oid(ptr noundef %57, ptr noundef %58)
  store ptr %59, ptr %9, align 8
  call void @llvm.lifetime.end.p0(i64 8, ptr %14) #7
  br label %60

60:                                               ; preds = %50, %46
  br label %61

61:                                               ; preds = %60, %42
  store i32 0, ptr %13, align 4
  br label %62

62:                                               ; preds = %61, %35
  call void @llvm.lifetime.end.p0(i64 1, ptr %12) #7
  call void @llvm.lifetime.end.p0(i64 4, ptr %11) #7
  call void @llvm.lifetime.end.p0(i64 8, ptr %10) #7
  %63 = load i32, ptr %13, align 4
  switch i32 %63, label %69 [
    i32 0, label %64
    i32 2, label %22
  ]

64:                                               ; preds = %62
  br label %22, !llvm.loop !16

65:                                               ; preds = %22
  %66 = load ptr, ptr %7, align 8
  call void @table_endscan(ptr noundef %66)
  %67 = load ptr, ptr %5, align 8
  call void @table_close(ptr noundef %67, i32 noundef 1)
  %68 = load ptr, ptr %9, align 8
  store i32 1, ptr %13, align 4
  call void @llvm.lifetime.end.p0(i64 8, ptr %9) #7
  call void @llvm.lifetime.end.p0(i64 8, ptr %8) #7
  call void @llvm.lifetime.end.p0(i64 8, ptr %7) #7
  call void @llvm.lifetime.end.p0(i64 72, ptr %6) #7
  call void @llvm.lifetime.end.p0(i64 8, ptr %5) #7
  ret ptr %68

69:                                               ; preds = %62
  unreachable
}