; Function Attrs: nounwind uwtable
define dso_local ptr @GetSchemaPublicationRelations(i32 noundef %0, i32 noundef %1) local_unnamed_addr #0 {
  %3 = alloca [1 x %struct.ScanKeyData], align 16
  call void @llvm.lifetime.start.p0(i64 72, ptr nonnull %3) #6
  %4 = tail call ptr @table_open(i32 noundef 1259, i32 noundef 1) #6
  %5 = zext i32 %0 to i64
  call void @ScanKeyInit(ptr noundef nonnull %3, i16 noundef signext 3, i16 noundef zeroext 3, i32 noundef 184, i64 noundef %5) #6
  %6 = call ptr @table_beginscan_catalog(ptr noundef %4, i32 noundef 1, ptr noundef nonnull %3) #6
  %7 = call ptr @heap_getnext(ptr noundef %6, i32 noundef 1) #6
  %.not21 = icmp eq ptr %7, null
  br i1 %.not21, label %._crit_edge, label %.lr.ph

.lr.ph:                                           ; preds = %2, %is_publishable_class.exit.thread
  %8 = phi ptr [ %31, %is_publishable_class.exit.thread ], [ %7, %2 ]
  %.022 = phi ptr [ %.1, %is_publishable_class.exit.thread ], [ null, %2 ]
  %9 = getelementptr i8, ptr %8, i64 16
  %.val = load ptr, ptr %9, align 8
  %10 = getelementptr inbounds nuw i8, ptr %.val, i64 22
  %11 = load i8, ptr %10, align 2
  %12 = zext i8 %11 to i64
  %13 = getelementptr inbounds nuw i8, ptr %.val, i64 %12
  %14 = load i32, ptr %13, align 4
  %15 = getelementptr inbounds nuw i8, ptr %13, i64 115
  %16 = load i8, ptr %15, align 1
  switch i8 %16, label %is_publishable_class.exit.thread [
    i8 114, label %17
    i8 112, label %17
  ]

17:                                               ; preds = %.lr.ph, %.lr.ph
  %18 = call zeroext i1 @IsCatalogRelationOid(i32 noundef %14) #6
  br i1 %18, label %is_publishable_class.exit.thread, label %is_publishable_class.exit

is_publishable_class.exit:                        ; preds = %17
  %19 = getelementptr inbounds nuw i8, ptr %13, i64 114
  %20 = load i8, ptr %19, align 2
  %21 = icmp eq i8 %20, 112
  %22 = icmp ugt i32 %14, 16383
  %spec.select.i = and i1 %22, %21
  br i1 %spec.select.i, label %23, label %is_publishable_class.exit.thread, !llvm.loop !13

23:                                               ; preds = %is_publishable_class.exit
  %24 = call signext i8 @get_rel_relkind(i32 noundef %14) #6
  switch i8 %24, label %is_publishable_class.exit.thread [
    i8 114, label %25
    i8 112, label %27
  ]

25:                                               ; preds = %23
  %26 = call ptr @lappend_oid(ptr noundef %.022, i32 noundef %14) #6
  br label %is_publishable_class.exit.thread

27:                                               ; preds = %23
  %28 = load i32, ptr %13, align 4
  %29 = call ptr @GetPubPartitionOptionRelations(ptr noundef null, i32 noundef %1, i32 noundef %28)
  %30 = call ptr @list_concat_unique_oid(ptr noundef %.022, ptr noundef %29) #6
  br label %is_publishable_class.exit.thread

is_publishable_class.exit.thread:                 ; preds = %.lr.ph, %17, %25, %27, %23, %is_publishable_class.exit
  %.1 = phi ptr [ %.022, %is_publishable_class.exit ], [ %26, %25 ], [ %30, %27 ], [ %.022, %23 ], [ %.022, %17 ], [ %.022, %.lr.ph ]
  %31 = call ptr @heap_getnext(ptr noundef %6, i32 noundef 1) #6
  %.not = icmp eq ptr %31, null
  br i1 %.not, label %._crit_edge, label %.lr.ph

._crit_edge:                                      ; preds = %is_publishable_class.exit.thread, %2
  %.0.lcssa = phi ptr [ null, %2 ], [ %.1, %is_publishable_class.exit.thread ]
  %32 = load ptr, ptr %6, align 8
  %33 = getelementptr inbounds nuw i8, ptr %32, i64 320
  %34 = load ptr, ptr %33, align 8
  %35 = getelementptr inbounds nuw i8, ptr %34, i64 24
  %36 = load ptr, ptr %35, align 8
  call void %36(ptr noundef nonnull %6) #6
  call void @table_close(ptr noundef %4, i32 noundef 1) #6
  call void @llvm.lifetime.end.p0(i64 72, ptr nonnull %3) #6
  ret ptr %.0.lcssa
}